target datalayout = "e-m:e-p270:32:32-p271:32:32-p272:64:64-i64:64-i128:128-f80:128-n8:16:32:64-S128"
target triple = "x86_64-pc-linux-gnu"

%struct._object = type { %union.anon, ptr }
%union.anon = type { i64 }

; Function Attrs: inlinehint nounwind uwtable
define internal ptr @_Py_TYPE(ptr noundef %0) #5 {
  %2 = alloca ptr, align 8
  store ptr %0, ptr %2, align 8, !tbaa !3
  %3 = load ptr, ptr %2, align 8, !tbaa !3
  %4 = getelementptr inbounds nuw %struct._object, ptr %3, i32 0, i32 1
  %5 = load ptr, ptr %4, align 8, !tbaa !66
  ret ptr %5
}

; Function Attrs: nounwind uwtable
define internal i32 @Decompressor_traverse(ptr noundef %0, ptr noundef %1, ptr noundef %2) #0 {
  %4 = alloca i32, align 4
  %5 = alloca ptr, align 8
  %6 = alloca ptr, align 8
  %7 = alloca ptr, align 8
  %8 = alloca i32, align 4
  %9 = alloca i32, align 4
  store ptr %0, ptr %5, align 8, !tbaa !8
  store ptr %1, ptr %6, align 8, !tbaa !8
  store ptr %2, ptr %7, align 8, !tbaa !8
  br label %10

10:                                               ; preds = %3
  %11 = load ptr, ptr %5, align 8, !tbaa !8
  %12 = call ptr @_Py_TYPE(ptr noundef %11)
  %13 = icmp ne ptr %12, null
  br i1 %13, label %14, label %28

14:                                               ; preds = %10
  call void @llvm.lifetime.start.p0(i64 4, ptr %8) #9
  %15 = load ptr, ptr %6, align 8, !tbaa !8
  %16 = load ptr, ptr %5, align 8, !tbaa !8
  %17 = call ptr @_Py_TYPE(ptr noundef %16)
  %18 = load ptr, ptr %7, align 8, !tbaa !8
  %19 = call i32 %15(ptr noundef %17, ptr noundef %18)
  store i32 %19, ptr %8, align 4, !tbaa !12
  %20 = load i32, ptr %8, align 4, !tbaa !12
  %21 = icmp ne i32 %20, 0
  br i1 %21, label %22, label %24

22:                                               ; preds = %14
  %23 = load i32, ptr %8, align 4, !tbaa !12
  store i32 %23, ptr %4, align 4
  store i32 1, ptr %9, align 4
  br label %25

24:                                               ; preds = %14
  store i32 0, ptr %9, align 4
  br label %25

25:                                               ; preds = %24, %22
  call void @llvm.lifetime.end.p0(i64 4, ptr %8) #9
  %26 = load i32, ptr %9, align 4
  switch i32 %26, label %32 [
    i32 0, label %27
    i32 1, label %30
  ]

27:                                               ; preds = %25
  br label %28

28:                                               ; preds = %27, %10
  br label %29

29:                                               ; preds = %28
  store i32 0, ptr %4, align 4
  br label %30

30:                                               ; preds = %29, %25
  %31 = load i32, ptr %4, align 4
  ret i32 %31

32:                                               ; preds = %25
  unreachable
}